; Function Attrs: mustprogress uwtable
define dso_local void @_ZN22cmLinkItemGraphVisitor9VisitItemERK10cmLinkItem(ptr noundef nonnull align 8 dereferenceable(104) %0, ptr noundef nonnull align 8 dereferenceable(104) %1) local_unnamed_addr #4 align 2 {
  %3 = tail call noundef zeroext i1 @_ZN22cmLinkItemGraphVisitor11ItemVisitedERK10cmLinkItem(ptr noundef nonnull align 8 dereferenceable(104) %0, ptr noundef nonnull align 8 dereferenceable(104) %1)
  br i1 %3, label %8, label %4

4:                                                ; preds = %2
  %5 = load ptr, ptr %0, align 8, !tbaa !4
  %6 = getelementptr inbounds nuw i8, ptr %5, i64 24
  %7 = load ptr, ptr %6, align 8
  tail call void %7(ptr noundef nonnull align 8 dereferenceable(104) %0, ptr noundef nonnull align 8 dereferenceable(104) %1)
  tail call void @_ZN22cmLinkItemGraphVisitor10VisitLinksERK10cmLinkItemS2_(ptr noundef nonnull align 8 dereferenceable(104) %0, ptr noundef nonnull align 8 dereferenceable(104) %1, ptr noundef nonnull align 8 dereferenceable(104) %1)
  br label %8

8:                                                ; preds = %2, %4
  ret void
}